; Function Attrs: mustprogress uwtable
define hidden noundef zeroext i1 @_ZN10ODDLParser13OpenDDLExport15writePropertiesEPNS_7DDLNodeERNSt7__cxx1112basic_stringIcSt11char_traitsIcESaIcEEE(ptr noundef nonnull readnone align 8 captures(none) dereferenceable(8) %this, ptr noundef %node, ptr noundef nonnull align 8 dereferenceable(32) %statement) local_unnamed_addr #0 align 2 personality ptr @__gxx_personality_v0 {
entry:
  %ref.tmp = alloca %"class.std::__cxx11::basic_string", align 8
  %ref.tmp12 = alloca %"class.std::allocator", align 1
  %cmp = icmp ne ptr %node, null
  br i1 %cmp, label %if.end, label %return

if.end:                                           ; preds = %entry
  %call = tail call noundef ptr @_ZNK10ODDLParser7DDLNode13getPropertiesEv(ptr noundef nonnull align 8 dereferenceable(136) %node)
  %cmp2 = icmp eq ptr %call, null
  br i1 %cmp2, label %return, label %if.then6

if.then6:                                         ; preds = %if.end
  %call7 = tail call noundef nonnull align 8 dereferenceable(32) ptr @_ZNSt7__cxx1112basic_stringIcSt11char_traitsIcESaIcEEpLEPKc(ptr noundef nonnull align 8 dereferenceable(32) %statement, ptr noundef nonnull @.str.4)
  br label %while.body

while.body:                                       ; preds = %if.then6, %invoke.cont14
  %first.015 = phi i1 [ true, %if.then6 ], [ false, %invoke.cont14 ]
  %prop.014 = phi ptr [ %call, %if.then6 ], [ %3, %invoke.cont14 ]
  br i1 %first.015, label %if.end11, label %if.then9

if.then9:                                         ; preds = %while.body
  %call10 = call noundef nonnull align 8 dereferenceable(32) ptr @_ZNSt7__cxx1112basic_stringIcSt11char_traitsIcESaIcEEpLEPKc(ptr noundef nonnull align 8 dereferenceable(32) %statement, ptr noundef nonnull @.str.5)
  br label %if.end11

if.end11:                                         ; preds = %while.body, %if.then9
  %0 = load ptr, ptr %prop.014, align 8
  %m_buffer = getelementptr inbounds nuw i8, ptr %0, i64 16
  %1 = load ptr, ptr %m_buffer, align 8
  call void @_ZNSaIcEC1Ev(ptr noundef nonnull align 1 dereferenceable(1) %ref.tmp12) #14
  %call.i13 = invoke noundef ptr @_ZNSt7__cxx1112basic_stringIcSt11char_traitsIcESaIcEE13_M_local_dataEv(ptr noundef nonnull align 8 dereferenceable(32) %ref.tmp)
          to label %call.i.noexc unwind label %lpad

call.i.noexc:                                     ; preds = %if.end11
  invoke void @_ZNSt7__cxx1112basic_stringIcSt11char_traitsIcESaIcEE12_Alloc_hiderC1EPcRKS3_(ptr noundef nonnull align 8 dereferenceable(32) %ref.tmp, ptr noundef %call.i13, ptr noundef nonnull align 1 dereferenceable(1) %ref.tmp12)
          to label %.noexc unwind label %lpad

.noexc:                                           ; preds = %call.i.noexc
  %cmp.i = icmp eq ptr %1, null
  br i1 %cmp.i, label %if.then.i, label %if.end.i

if.then.i:                                        ; preds = %.noexc
  invoke void @_ZSt19__throw_logic_errorPKc(ptr noundef nonnull @.str.17) #16
          to label %invoke.cont.i unwind label %lpad.i.loopexit.split-lp

invoke.cont.i:                                    ; preds = %if.then.i
  unreachable

lpad.i.loopexit:                                  ; preds = %if.end.i
  %lpad.loopexit = landingpad { ptr, i32 }
          cleanup
  br label %lpad.i

lpad.i.loopexit.split-lp:                         ; preds = %if.then.i
  %lpad.loopexit.split-lp = landingpad { ptr, i32 }
          cleanup
  br label %lpad.i

lpad.i:                                           ; preds = %lpad.i.loopexit.split-lp, %lpad.i.loopexit
  %lpad.phi = phi { ptr, i32 } [ %lpad.loopexit, %lpad.i.loopexit ], [ %lpad.loopexit.split-lp, %lpad.i.loopexit.split-lp ]
  call void @_ZNSaIcED2Ev(ptr noundef nonnull align 8 dereferenceable(32) %ref.tmp) #14
  br label %ehcleanup

if.end.i:                                         ; preds = %.noexc
  %call.i.i = call noundef i64 @strlen(ptr noundef nonnull dereferenceable(1) %1) #14
  %add.ptr.i = getelementptr inbounds i8, ptr %1, i64 %call.i.i
  invoke void @_ZNSt7__cxx1112basic_stringIcSt11char_traitsIcESaIcEE12_M_constructIPKcEEvT_S8_St20forward_iterator_tag(ptr noundef nonnull align 8 dereferenceable(32) %ref.tmp, ptr noundef nonnull %1, ptr noundef nonnull %add.ptr.i)
          to label %invoke.cont unwind label %lpad.i.loopexit

invoke.cont:                                      ; preds = %if.end.i
  %call15 = invoke noundef nonnull align 8 dereferenceable(32) ptr @_ZNSt7__cxx1112basic_stringIcSt11char_traitsIcESaIcEEpLERKS4_(ptr noundef nonnull align 8 dereferenceable(32) %statement, ptr noundef nonnull align 8 dereferenceable(32) %ref.tmp)
          to label %invoke.cont14 unwind label %lpad13

invoke.cont14:                                    ; preds = %invoke.cont
  call void @_ZNSt7__cxx1112basic_stringIcSt11char_traitsIcESaIcEED1Ev(ptr noundef nonnull align 8 dereferenceable(32) %ref.tmp) #14
  call void @_ZNSaIcED1Ev(ptr noundef nonnull align 1 dereferenceable(1) %ref.tmp12) #14
  %call16 = call noundef nonnull align 8 dereferenceable(32) ptr @_ZNSt7__cxx1112basic_stringIcSt11char_traitsIcESaIcEEpLEPKc(ptr noundef nonnull align 8 dereferenceable(32) %statement, ptr noundef nonnull @.str.6)
  %m_value = getelementptr inbounds nuw i8, ptr %prop.014, i64 8
  %2 = load ptr, ptr %m_value, align 8
  %call17 = call noundef zeroext i1 @_ZN10ODDLParser13OpenDDLExport10writeValueEPNS_5ValueERNSt7__cxx1112basic_stringIcSt11char_traitsIcESaIcEEE(ptr nonnull align 8 poison, ptr noundef %2, ptr noundef nonnull align 8 dereferenceable(32) %statement)
  %m_next = getelementptr inbounds nuw i8, ptr %prop.014, i64 24
  %3 = load ptr, ptr %m_next, align 8
  %cmp8.not = icmp eq ptr %3, null
  br i1 %cmp8.not, label %while.end, label %while.body, !llvm.loop !8

lpad:                                             ; preds = %call.i.noexc, %if.end11
  %4 = landingpad { ptr, i32 }
          cleanup
  br label %ehcleanup

lpad13:                                           ; preds = %invoke.cont
  %5 = landingpad { ptr, i32 }
          cleanup
  call void @_ZNSt7__cxx1112basic_stringIcSt11char_traitsIcESaIcEED1Ev(ptr noundef nonnull align 8 dereferenceable(32) %ref.tmp) #14
  br label %ehcleanup

ehcleanup:                                        ; preds = %lpad, %lpad.i, %lpad13
  %.pn = phi { ptr, i32 } [ %5, %lpad13 ], [ %4, %lpad ], [ %lpad.phi, %lpad.i ]
  call void @_ZNSaIcED1Ev(ptr noundef nonnull align 1 dereferenceable(1) %ref.tmp12) #14
  resume { ptr, i32 } %.pn

while.end:                                        ; preds = %invoke.cont14
  %call18 = call noundef nonnull align 8 dereferenceable(32) ptr @_ZNSt7__cxx1112basic_stringIcSt11char_traitsIcESaIcEEpLEPKc(ptr noundef nonnull align 8 dereferenceable(32) %statement, ptr noundef nonnull @.str.7)
  br label %return

return:                                           ; preds = %if.end, %entry, %while.end
  ret i1 %cmp
}